; Function Attrs: mustprogress uwtable
define hidden noundef zeroext i1 @_ZNK11value_sweep20all_args_have_valuesEP3app(ptr noundef nonnull readonly align 8 captures(none) dereferenceable(184) %0, ptr noundef readonly captures(address) %1) local_unnamed_addr #3 align 2 {
  %3 = getelementptr inbounds nuw i8, ptr %1, i64 24
  %4 = load i32, ptr %3, align 8, !tbaa !84
  %5 = zext i32 %4 to i64
  %.idx = shl nuw nsw i64 %5, 3
  %6 = getelementptr inbounds nuw i8, ptr %1, i64 %.idx
  %.ptr24 = getelementptr inbounds nuw i8, ptr %6, i64 32
  %7 = getelementptr inbounds nuw i8, ptr %0, i64 96
  %.not17 = icmp eq i32 %4, 0
  br i1 %.not17, label %_ZNK11value_sweep9get_valueEP4expr.exit.thread, label %.lr.ph.preheader

.lr.ph.preheader:                                 ; preds = %2
  %.ptr = getelementptr inbounds nuw i8, ptr %1, i64 32
  br label %.lr.ph

8:                                                ; preds = %_ZNK11value_sweep9get_valueEP4expr.exit
  %9 = getelementptr inbounds nuw i8, ptr %.01318, i64 8
  %.not = icmp eq ptr %9, %.ptr24
  br i1 %.not, label %_ZNK11value_sweep9get_valueEP4expr.exit.thread, label %.lr.ph

.lr.ph:                                           ; preds = %.lr.ph.preheader, %8
  %.01318 = phi ptr [ %9, %8 ], [ %.ptr, %.lr.ph.preheader ]
  %10 = load ptr, ptr %.01318, align 8, !tbaa !39
  %11 = load ptr, ptr %0, align 8, !tbaa !70
  %12 = tail call noundef zeroext i1 @_ZNK11ast_manager8is_valueEP4expr(ptr noundef nonnull align 8 dereferenceable(976) %11, ptr noundef %10)
  br i1 %12, label %_ZNK11value_sweep9get_valueEP4expr.exit, label %13

13:                                               ; preds = %.lr.ph
  %14 = load ptr, ptr %7, align 8, !tbaa !11
  %15 = icmp eq ptr %14, null
  br i1 %15, label %_ZNK11value_sweep9get_valueEP4expr.exit.thread, label %_ZNK15ref_vector_coreI4expr19ref_manager_wrapperIS0_11ast_managerEE4sizeEv.exit.i

_ZNK15ref_vector_coreI4expr19ref_manager_wrapperIS0_11ast_managerEE4sizeEv.exit.i: ; preds = %13
  %16 = getelementptr inbounds i8, ptr %14, i64 -4
  %17 = load i32, ptr %16, align 4, !tbaa !38
  %18 = load i32, ptr %10, align 4, !tbaa !52
  %.not.i = icmp ugt i32 %17, %18
  br i1 %.not.i, label %19, label %_ZNK11value_sweep9get_valueEP4expr.exit.thread

19:                                               ; preds = %_ZNK15ref_vector_coreI4expr19ref_manager_wrapperIS0_11ast_managerEE4sizeEv.exit.i
  %20 = zext i32 %18 to i64
  %21 = getelementptr inbounds nuw ptr, ptr %14, i64 %20
  %22 = load ptr, ptr %21, align 8, !tbaa !39
  br label %_ZNK11value_sweep9get_valueEP4expr.exit

_ZNK11value_sweep9get_valueEP4expr.exit:          ; preds = %.lr.ph, %19
  %.0.i = phi ptr [ %22, %19 ], [ %10, %.lr.ph ]
  %.not14.not = icmp eq ptr %.0.i, null
  br i1 %.not14.not, label %_ZNK11value_sweep9get_valueEP4expr.exit.thread, label %8

_ZNK11value_sweep9get_valueEP4expr.exit.thread:   ; preds = %_ZNK11value_sweep9get_valueEP4expr.exit, %8, %_ZNK15ref_vector_coreI4expr19ref_manager_wrapperIS0_11ast_managerEE4sizeEv.exit.i, %13, %2
  %.not.lcssa = phi i1 [ true, %2 ], [ false, %13 ], [ false, %_ZNK15ref_vector_coreI4expr19ref_manager_wrapperIS0_11ast_managerEE4sizeEv.exit.i ], [ true, %8 ], [ false, %_ZNK11value_sweep9get_valueEP4expr.exit ]
  ret i1 %.not.lcssa
}